target datalayout = "e-m:e-p270:32:32-p271:32:32-p272:64:64-i64:64-i128:128-f80:128-n8:16:32:64-S128"
target triple = "x86_64-pc-linux-gnu"

@.str.25 = private unnamed_addr constant [3 x i8] c"%f\00", align 1

; Function Attrs: nounwind uwtable
define internal i32 @set_metadata_float(ptr noundef %0, ptr noundef %1, float noundef %2, i32 noundef %3) #0 {
  %5 = alloca i32, align 4
  %6 = alloca ptr, align 8
  %7 = alloca ptr, align 8
  %8 = alloca float, align 4
  %9 = alloca i32, align 4
  %10 = alloca [64 x i8], align 16
  store ptr %0, ptr %6, align 8, !tbaa !87
  store ptr %1, ptr %7, align 8, !tbaa !54
  store float %2, ptr %8, align 4, !tbaa !89
  store i32 %3, ptr %9, align 4, !tbaa !14
  %11 = load float, ptr %8, align 4, !tbaa !89
  %12 = fcmp nsz une float %11, 0.000000e+00
  br i1 %12, label %16, label %13

13:                                               ; preds = %4
  %14 = load i32, ptr %9, align 4, !tbaa !14
  %15 = icmp ne i32 %14, 0
  br i1 %15, label %16, label %25

16:                                               ; preds = %13, %4
  call void @llvm.lifetime.start.p0(i64 64, ptr %10) #5
  %17 = getelementptr inbounds [64 x i8], ptr %10, i64 0, i64 0
  %18 = load float, ptr %8, align 4, !tbaa !89
  %19 = fpext nsz float %18 to double
  %20 = call i32 (ptr, i64, ptr, ...) @snprintf(ptr noundef %17, i64 noundef 64, ptr noundef @.str.25, double noundef %19) #5
  %21 = load ptr, ptr %6, align 8, !tbaa !87
  %22 = load ptr, ptr %7, align 8, !tbaa !54
  %23 = getelementptr inbounds [64 x i8], ptr %10, i64 0, i64 0
  %24 = call i32 @av_dict_set(ptr noundef %21, ptr noundef %22, ptr noundef %23, i32 noundef 0)
  store i32 %24, ptr %5, align 4
  call void @llvm.lifetime.end.p0(i64 64, ptr %10) #5
  br label %26

25:                                               ; preds = %13
  store i32 0, ptr %5, align 4
  br label %26

26:                                               ; preds = %25, %16
  %27 = load i32, ptr %5, align 4
  ret i32 %27
}