; Function Attrs: nounwind uwtable
define internal fastcc void @set_metadata_float(ptr noundef nonnull %0, ptr noundef %1, float noundef %2) unnamed_addr #1 {
  %4 = alloca [64 x i8], align 16
  call void @llvm.lifetime.start.p0(i64 64, ptr nonnull %4) #7
  %5 = fpext nsz float %2 to double
  %6 = call i32 (ptr, i64, ptr, ...) @snprintf(ptr noundef nonnull dereferenceable(1) %4, i64 noundef 64, ptr noundef nonnull @.str.25, double noundef %5) #7
  %7 = call i32 @av_dict_set(ptr noundef nonnull %0, ptr noundef %1, ptr noundef nonnull %4, i32 noundef 0) #7
  call void @llvm.lifetime.end.p0(i64 64, ptr nonnull %4) #7
  ret void
}